0x0000000000000000:  C8 40 00 00          enter 0x40, 0
0x0000000000000004:  31 C0                xor   eax, eax
0x0000000000000006:  31 D2                xor   edx, edx
0x0000000000000008:  B9 C0 FF FF FF       mov   ecx, 0xffffffc0
0x000000000000000d:  81 EA 04 00 00 00    sub   edx, 4
0x0000000000000013:  89 44 15 00          mov   dword ptr [ebp + edx], eax
0x0000000000000017:  39 CA                cmp   edx, ecx
0x0000000000000019:  75 F2                jne   0xd
0x000000000000001b:  31 C0                xor   eax, eax
0x000000000000001d:  31 C0                xor   eax, eax
0x000000000000001f:  8B 1D 50 01 00 04    mov   ebx, dword ptr [0x4000150]
0x0000000000000025:  8B 83 87 00 00 00    mov   eax, dword ptr [ebx + 0x87] # 0x87 read [Start]
0x000000000000002b:  24 01                and   al, 1
0x000000000000002d:  88 45 FC             mov   byte ptr [ebp - 4], al
0x0000000000000030:  24 01                and   al, 1
0x0000000000000032:  88 45 F8             mov   byte ptr [ebp - 8], al
0x0000000000000035:  25 01 00 00 00       and   eax, 1
0x000000000000003a:  50                   push  eax
0x000000000000003b:  85 C0                test  eax, eax
0x000000000000003d:  0F 84 0A 00 00 00    je    0x4d
0x0000000000000043:  B8 01 00 00 00       mov   eax, 1
0x0000000000000048:  E9 0C 00 00 00       jmp   0x59
0x000000000000004d:  8B 1D 50 01 00 04    mov   ebx, dword ptr [0x4000150]
0x0000000000000053:  8B 83 86 00 00 00    mov   eax, dword ptr [ebx + 0x86] # 0x86 set heating
0x0000000000000059:  8B 1D 50 01 00 04    mov   ebx, dword ptr [0x4000150]
0x000000000000005f:  88 C6                mov   dh, al
0x0000000000000061:  8A 8B 86 00 00 00    mov   cl, byte ptr [ebx + 0x86]   # 0x86 set heating
0x0000000000000067:  88 CA                mov   dl, cl
0x0000000000000069:  80 E2 01             and   dl, 1
0x000000000000006c:  80 E1 04             and   cl, 4
0x000000000000006f:  74 05                je    0x76
0x0000000000000071:  88 D6                mov   dh, dl
0x0000000000000073:  80 CA 02             or    dl, 2
0x0000000000000076:  D0 EE                shr   dh, 1
0x0000000000000078:  D0 D2                rcl   dl, 1
0x000000000000007a:  88 93 86 00 00 00    mov   byte ptr [ebx + 0x86], dl   # 0x86 set heating

0x0000000000000080:  58                   pop   eax
0x0000000000000081:  89 45 F4             mov   dword ptr [ebp - 0xc], eax
0x0000000000000084:  25 01 00 00 00       and   eax, 1
0x0000000000000089:  50                   push  eax
0x000000000000008a:  85 C0                test  eax, eax
0x000000000000008c:  0F 84 0A 00 00 00    je    0x9c
0x0000000000000092:  B8 01 00 00 00       mov   eax, 1
0x0000000000000097:  E9 0C 00 00 00       jmp   0xa8
0x000000000000009c:  8B 1D 50 01 00 04    mov   ebx, dword ptr [0x4000150]
0x00000000000000a2:  8B 83 84 00 00 00    mov   eax, dword ptr [ebx + 0x84] # 0x84 set fun1
0x00000000000000a8:  8B 1D 50 01 00 04    mov   ebx, dword ptr [0x4000150]
0x00000000000000ae:  88 C6                mov   dh, al
0x00000000000000b0:  8A 8B 84 00 00 00    mov   cl, byte ptr [ebx + 0x84]   # 0x84 set fun1
0x00000000000000b6:  88 CA                mov   dl, cl
0x00000000000000b8:  80 E2 01             and   dl, 1
0x00000000000000bb:  80 E1 04             and   cl, 4
0x00000000000000be:  74 05                je    0xc5
0x00000000000000c0:  88 D6                mov   dh, dl
0x00000000000000c2:  80 CA 02             or    dl, 2
0x00000000000000c5:  D0 EE                shr   dh, 1
0x00000000000000c7:  D0 D2                rcl   dl, 1
0x00000000000000c9:  88 93 84 00 00 00    mov   byte ptr [ebx + 0x84], dl   # 0x84 set fun1

0x00000000000000cf:  58                   pop   eax
0x00000000000000d0:  89 45 F0             mov   dword ptr [ebp - 0x10], eax
0x00000000000000d3:  31 C0                xor   eax, eax
0x00000000000000d5:  31 C0                xor   eax, eax
0x00000000000000d7:  8B 1D 50 01 00 04    mov   ebx, dword ptr [0x4000150]
0x00000000000000dd:  8B 83 88 00 00 00    mov   eax, dword ptr [ebx + 0x88] # 0x88 read [Stop]
0x00000000000000e3:  24 01                and   al, 1
0x00000000000000e5:  88 45 EC             mov   byte ptr [ebp - 0x14], al
0x00000000000000e8:  24 01                and   al, 1
0x00000000000000ea:  88 45 E8             mov   byte ptr [ebp - 0x18], al
0x00000000000000ed:  25 01 00 00 00       and   eax, 1
0x00000000000000f2:  50                   push  eax
0x00000000000000f3:  85 C0                test  eax, eax
0x00000000000000f5:  0F 84 07 00 00 00    je    0x102
0x00000000000000fb:  31 C0                xor   eax, eax
0x00000000000000fd:  E9 0C 00 00 00       jmp   0x10e
0x0000000000000102:  8B 1D 50 01 00 04    mov   ebx, dword ptr [0x4000150]
0x0000000000000108:  8B 83 86 00 00 00    mov   eax, dword ptr [ebx + 0x86]
0x000000000000010e:  8B 1D 50 01 00 04    mov   ebx, dword ptr [0x4000150]
0x0000000000000114:  88 C6                mov   dh, al
0x0000000000000116:  8A 8B 86 00 00 00    mov   cl, byte ptr [ebx + 0x86]
0x000000000000011c:  88 CA                mov   dl, cl
0x000000000000011e:  80 E2 01             and   dl, 1
0x0000000000000121:  80 E1 04             and   cl, 4
0x0000000000000124:  74 05                je    0x12b
0x0000000000000126:  88 D6                mov   dh, dl
0x0000000000000128:  80 CA 02             or    dl, 2
0x000000000000012b:  D0 EE                shr   dh, 1
0x000000000000012d:  D0 D2                rcl   dl, 1
0x000000000000012f:  88 93 86 00 00 00    mov   byte ptr [ebx + 0x86], dl   # 0x86 unset heating

0x0000000000000135:  58                   pop   eax
0x0000000000000136:  89 45 E4             mov   dword ptr [ebp - 0x1c], eax
0x0000000000000139:  25 01 00 00 00       and   eax, 1
0x000000000000013e:  50                   push  eax
0x000000000000013f:  85 C0                test  eax, eax
0x0000000000000141:  0F 84 07 00 00 00    je    0x14e
0x0000000000000147:  31 C0                xor   eax, eax
0x0000000000000149:  E9 0C 00 00 00       jmp   0x15a
0x000000000000014e:  8B 1D 50 01 00 04    mov   ebx, dword ptr [0x4000150]
0x0000000000000154:  8B 83 84 00 00 00    mov   eax, dword ptr [ebx + 0x84]
0x000000000000015a:  8B 1D 50 01 00 04    mov   ebx, dword ptr [0x4000150]
0x0000000000000160:  88 C6                mov   dh, al
0x0000000000000162:  8A 8B 84 00 00 00    mov   cl, byte ptr [ebx + 0x84]
0x0000000000000168:  88 CA                mov   dl, cl
0x000000000000016a:  80 E2 01             and   dl, 1
0x000000000000016d:  80 E1 04             and   cl, 4
0x0000000000000170:  74 05                je    0x177
0x0000000000000172:  88 D6                mov   dh, dl
0x0000000000000174:  80 CA 02             or    dl, 2
0x0000000000000177:  D0 EE                shr   dh, 1
0x0000000000000179:  D0 D2                rcl   dl, 1
0x000000000000017b:  88 93 84 00 00 00    mov   byte ptr [ebx + 0x84], dl   # 0x84 unset fun1

0x0000000000000181:  58                   pop   eax
0x0000000000000182:  89 45 E0             mov   dword ptr [ebp - 0x20], eax
0x0000000000000185:  31 C0                xor   eax, eax
0x0000000000000187:  8B 1D 50 01 00 04    mov   ebx, dword ptr [0x4000150]
0x000000000000018d:  8B 83 86 00 00 00    mov   eax, dword ptr [ebx + 0x86] # 0x86 read [heating]
0x0000000000000193:  25 03 00 00 00       and   eax, 3
0x0000000000000198:  3D 02 00 00 00       cmp   eax, 2
0x000000000000019d:  0F 94 C0             sete  al                          # if al == 10 then al = 01
0x00000000000001a0:  24 01                and   al, 1                       # else al = 00
0x00000000000001a2:  88 45 DC             mov   byte ptr [ebp - 0x24], al
0x00000000000001a5:  25 01 00 00 00       and   eax, 1
0x00000000000001aa:  50                   push  eax
0x00000000000001ab:  85 C0                test  eax, eax                    
0x00000000000001ad:  0F 84 0A 00 00 00    je    0x1bd
0x00000000000001b3:  B8 01 00 00 00       mov   eax, 1                      # set al = 1 (represent nagative)
0x00000000000001b8:  E9 0C 00 00 00       jmp   0x1c9
0x00000000000001bd:  8B 1D 50 01 00 04    mov   ebx, dword ptr [0x4000150]  
0x00000000000001c3:  8B 83 85 00 00 00    mov   eax, dword ptr [ebx + 0x85] # 0x85 set fun2
0x00000000000001c9:  8B 1D 50 01 00 04    mov   ebx, dword ptr [0x4000150]
0x00000000000001cf:  88 C6                mov   dh, al
0x00000000000001d1:  8A 8B 85 00 00 00    mov   cl, byte ptr [ebx + 0x85]
0x00000000000001d7:  88 CA                mov   dl, cl
0x00000000000001d9:  80 E2 01             and   dl, 1
0x00000000000001dc:  80 E1 04             and   cl, 4
0x00000000000001df:  74 05                je    0x1e6
0x00000000000001e1:  88 D6                mov   dh, dl
0x00000000000001e3:  80 CA 02             or    dl, 2
0x00000000000001e6:  D0 EE                shr   dh, 1
0x00000000000001e8:  D0 D2                rcl   dl, 1
0x00000000000001ea:  88 93 85 00 00 00    mov   byte ptr [ebx + 0x85], dl   # 0x85 set fun2

0x00000000000001f0:  58                   pop   eax
0x00000000000001f1:  89 45 D8             mov   dword ptr [ebp - 0x28], eax
0x00000000000001f4:  31 C0                xor   eax, eax
0x00000000000001f6:  8B 1D 50 01 00 04    mov   ebx, dword ptr [0x4000150]
0x00000000000001fc:  8B 83 86 00 00 00    mov   eax, dword ptr [ebx + 0x86] # 0x86 read [heating]
0x0000000000000202:  24 01                and   al, 1
0x0000000000000204:  88 45 D4             mov   byte ptr [ebp - 0x2c], al
0x0000000000000207:  25 01 00 00 00       and   eax, 1
0x000000000000020c:  50                   push  eax
0x000000000000020d:  85 C0                test  eax, eax
0x000000000000020f:  0F 84 07 00 00 00    je    0x21c
0x0000000000000215:  31 C0                xor   eax, eax
0x0000000000000217:  E9 0C 00 00 00       jmp   0x228
0x000000000000021c:  8B 1D 50 01 00 04    mov   ebx, dword ptr [0x4000150]
0x0000000000000222:  8B 83 85 00 00 00    mov   eax, dword ptr [ebx + 0x85] # 0x85 unset fun2
0x0000000000000228:  8B 1D 50 01 00 04    mov   ebx, dword ptr [0x4000150]
0x000000000000022e:  88 C6                mov   dh, al
0x0000000000000230:  8A 8B 85 00 00 00    mov   cl, byte ptr [ebx + 0x85]
0x0000000000000236:  88 CA                mov   dl, cl
0x0000000000000238:  80 E2 01             and   dl, 1
0x000000000000023b:  80 E1 04             and   cl, 4
0x000000000000023e:  74 05                je    0x245
0x0000000000000240:  88 D6                mov   dh, dl
0x0000000000000242:  80 CA 02             or    dl, 2
0x0000000000000245:  D0 EE                shr   dh, 1
0x0000000000000247:  D0 D2                rcl   dl, 1
0x0000000000000249:  88 93 85 00 00 00    mov   byte ptr [ebx + 0x85], dl   # 0x85 unset fun2

0x000000000000024f:  58                   pop   eax
0x0000000000000250:  89 45 D0             mov   dword ptr [ebp - 0x30], eax
0x0000000000000253:  8B 1D 50 01 00 04    mov   ebx, dword ptr [0x4000150]
0x0000000000000259:  8B 83 86 00 00 00    mov   eax, dword ptr [ebx + 0x86] # 0x86 read [heating]
0x000000000000025f:  24 01                and   al, 1
0x0000000000000261:  88 45 CC             mov   byte ptr [ebp - 0x34], al
0x0000000000000264:  8B 1D 18 03 00 04    mov   ebx, dword ptr [0x4000318]
0x000000000000026a:  24 01                and   al, 1
0x000000000000026c:  88 43 02             mov   byte ptr [ebx + 2], al      # 0x2 set OUTPUT
0x000000000000026f:  89 45 C8             mov   dword ptr [ebp - 0x38], eax
0x0000000000000272:  8B 1D 50 01 00 04    mov   ebx, dword ptr [0x4000150]
0x0000000000000278:  8B 83 85 00 00 00    mov   eax, dword ptr [ebx + 0x85] # 0x85 read [fun2]
0x000000000000027e:  24 01                and   al, 1
0x0000000000000280:  88 45 C4             mov   byte ptr [ebp - 0x3c], al   
0x0000000000000283:  8B 1D 18 03 00 04    mov   ebx, dword ptr [0x4000318]
0x0000000000000289:  24 01                and   al, 1
0x000000000000028b:  88 43 02             mov   byte ptr [ebx + 2], al      # 0x2 set OUTPUT
0x000000000000028e:  89 45 C0             mov   dword ptr [ebp - 0x40], eax
0x0000000000000291:  31 C0                xor   eax, eax
0x0000000000000293:  50                   push  eax
0x0000000000000294:  8B 1D 70 01 00 04    mov   ebx, dword ptr [0x4000170]
0x000000000000029a:  66 8B 03             mov   ax, word ptr [ebx]
0x000000000000029d:  66 09 C0             or    ax, ax
0x00000000000002a0:  74 22                je    0x2c4
0x00000000000002a2:  68 00 00 00 00       push  0
0x00000000000002a7:  55                   push  ebp
0x00000000000002a8:  50                   push  eax
0x00000000000002a9:  31 DB                xor   ebx, ebx
0x00000000000002ab:  68 28 00 00 00       push  0x28
0x00000000000002b0:  FF 15 00 00 20 04    call  dword ptr [0x4200000]
0x00000000000002b6:  81 C4 04 00 00 00    add   esp, 4
0x00000000000002bc:  FF D0                call  eax
0x00000000000002be:  81 C4 0C 00 00 00    add   esp, 0xc

0x00000000000002c4:  58                   pop   eax
0x00000000000002c5:  C9                   leave 
0x00000000000002c6:  C3                   ret   